target datalayout = "e-m:e-p270:32:32-p271:32:32-p272:64:64-i64:64-i128:128-f80:128-n8:16:32:64-S128"
target triple = "x86_64-pc-linux-gnu"

%struct.vfd = type { i32, i16, ptr, i32, i32, i32, i64, ptr, i32, i32 }
%struct.iovec = type { ptr, i64 }

@VfdCache = internal global ptr null, align 8
@my_wait_event_info = external global ptr, align 8

; Function Attrs: inlinehint nounwind uwtable
define internal void @pgstat_report_wait_end() #9 {
  %1 = load ptr, ptr @my_wait_event_info, align 8
  store volatile i32 0, ptr %1, align 4
  ret void
}

; Function Attrs: inlinehint nounwind uwtable
define internal i64 @pg_preadv(i32 noundef %0, ptr noundef %1, i32 noundef %2, i64 noundef %3) #9 {
  %5 = alloca i64, align 8
  %6 = alloca i32, align 4
  %7 = alloca ptr, align 8
  %8 = alloca i32, align 4
  %9 = alloca i64, align 8
  store i32 %0, ptr %6, align 4
  store ptr %1, ptr %7, align 8
  store i32 %2, ptr %8, align 4
  store i64 %3, ptr %9, align 8
  %10 = load i32, ptr %8, align 4
  %11 = icmp eq i32 %10, 1
  br i1 %11, label %12, label %24

12:                                               ; preds = %4
  %13 = load i32, ptr %6, align 4
  %14 = load ptr, ptr %7, align 8
  %15 = getelementptr inbounds %struct.iovec, ptr %14, i64 0
  %16 = getelementptr inbounds nuw %struct.iovec, ptr %15, i32 0, i32 0
  %17 = load ptr, ptr %16, align 8
  %18 = load ptr, ptr %7, align 8
  %19 = getelementptr inbounds %struct.iovec, ptr %18, i64 0
  %20 = getelementptr inbounds nuw %struct.iovec, ptr %19, i32 0, i32 1
  %21 = load i64, ptr %20, align 8
  %22 = load i64, ptr %9, align 8
  %23 = call i64 @pread(i32 noundef %13, ptr noundef %17, i64 noundef %21, i64 noundef %22)
  store i64 %23, ptr %5, align 8
  br label %30

24:                                               ; preds = %4
  %25 = load i32, ptr %6, align 4
  %26 = load ptr, ptr %7, align 8
  %27 = load i32, ptr %8, align 4
  %28 = load i64, ptr %9, align 8
  %29 = call i64 @preadv(i32 noundef %25, ptr noundef %26, i32 noundef %27, i64 noundef %28)
  store i64 %29, ptr %5, align 8
  br label %30

30:                                               ; preds = %24, %12
  %31 = load i64, ptr %5, align 8
  ret i64 %31
}

; Function Attrs: inlinehint nounwind uwtable
define internal void @pgstat_report_wait_start(i32 noundef %0) #9 {
  %2 = alloca i32, align 4
  store i32 %0, ptr %2, align 4
  %3 = load i32, ptr %2, align 4
  %4 = load ptr, ptr @my_wait_event_info, align 8
  store volatile i32 %3, ptr %4, align 4
  ret void
}

; Function Attrs: nounwind uwtable
define dso_local i64 @FileReadV(i32 noundef %0, ptr noundef %1, i32 noundef %2, i64 noundef %3, i32 noundef %4) #0 {
  %6 = alloca i64, align 8
  %7 = alloca i32, align 4
  %8 = alloca ptr, align 8
  %9 = alloca i32, align 4
  %10 = alloca i64, align 8
  %11 = alloca i32, align 4
  %12 = alloca i64, align 8
  %13 = alloca ptr, align 8
  %14 = alloca i32, align 4
  store i32 %0, ptr %7, align 4
  store ptr %1, ptr %8, align 8
  store i32 %2, ptr %9, align 4
  store i64 %3, ptr %10, align 8
  store i32 %4, ptr %11, align 4
  call void @llvm.lifetime.start.p0(i64 8, ptr %12) #14
  call void @llvm.lifetime.start.p0(i64 8, ptr %13) #14
  %15 = load i32, ptr %7, align 4
  %16 = call i32 @FileAccess(i32 noundef %15)
  %17 = sext i32 %16 to i64
  store i64 %17, ptr %12, align 8
  %18 = load i64, ptr %12, align 8
  %19 = icmp slt i64 %18, 0
  br i1 %19, label %20, label %22

20:                                               ; preds = %5
  %21 = load i64, ptr %12, align 8
  store i64 %21, ptr %6, align 8
  store i32 1, ptr %14, align 4
  br label %46

22:                                               ; preds = %5
  %23 = load ptr, ptr @VfdCache, align 8
  %24 = load i32, ptr %7, align 4
  %25 = sext i32 %24 to i64
  %26 = getelementptr inbounds %struct.vfd, ptr %23, i64 %25
  store ptr %26, ptr %13, align 8
  br label %27

27:                                               ; preds = %42, %22
  %28 = load i32, ptr %11, align 4
  call void @pgstat_report_wait_start(i32 noundef %28)
  %29 = load ptr, ptr %13, align 8
  %30 = getelementptr inbounds nuw %struct.vfd, ptr %29, i32 0, i32 0
  %31 = load i32, ptr %30, align 8
  %32 = load ptr, ptr %8, align 8
  %33 = load i32, ptr %9, align 4
  %34 = load i64, ptr %10, align 8
  %35 = call i64 @pg_preadv(i32 noundef %31, ptr noundef %32, i32 noundef %33, i64 noundef %34)
  store i64 %35, ptr %12, align 8
  call void @pgstat_report_wait_end()
  %36 = load i64, ptr %12, align 8
  %37 = icmp slt i64 %36, 0
  br i1 %37, label %38, label %44

38:                                               ; preds = %27
  %39 = call ptr @__errno_location() #15
  %40 = load i32, ptr %39, align 4
  %41 = icmp eq i32 %40, 4
  br i1 %41, label %42, label %43

42:                                               ; preds = %38
  br label %27

43:                                               ; preds = %38
  br label %44

44:                                               ; preds = %43, %27
  %45 = load i64, ptr %12, align 8
  store i64 %45, ptr %6, align 8
  store i32 1, ptr %14, align 4
  br label %46

46:                                               ; preds = %44, %20
  call void @llvm.lifetime.end.p0(i64 8, ptr %13) #14
  call void @llvm.lifetime.end.p0(i64 8, ptr %12) #14
  %47 = load i64, ptr %6, align 8
  ret i64 %47
}