; Function Attrs: nounwind uwtable
define dso_local i64 @FileReadV(i32 noundef %0, ptr noundef %1, i32 noundef %2, i64 noundef %3, i32 noundef %4) local_unnamed_addr #0 {
  %6 = tail call fastcc i32 @FileAccess(i32 noundef %0)
  %7 = icmp slt i32 %6, 0
  br i1 %7, label %.loopexit, label %8

8:                                                ; preds = %5
  %9 = load ptr, ptr @VfdCache, align 8
  %10 = sext i32 %0 to i64
  %11 = getelementptr inbounds %struct.vfd, ptr %9, i64 %10
  %12 = icmp eq i32 %2, 1
  %13 = getelementptr inbounds nuw i8, ptr %1, i64 8
  br i1 %12, label %pg_preadv.exit.us, label %pg_preadv.exit

pg_preadv.exit.us:                                ; preds = %8, %21
  %14 = load ptr, ptr @my_wait_event_info, align 8
  store volatile i32 %4, ptr %14, align 4
  %15 = load i32, ptr %11, align 8
  %16 = load ptr, ptr %1, align 8
  %17 = load i64, ptr %13, align 8
  %18 = tail call i64 @pread(i32 noundef %15, ptr noundef %16, i64 noundef %17, i64 noundef %3) #25
  %19 = load ptr, ptr @my_wait_event_info, align 8
  store volatile i32 0, ptr %19, align 4
  %20 = icmp slt i64 %18, 0
  br i1 %20, label %21, label %.loopexit

21:                                               ; preds = %pg_preadv.exit.us
  %22 = tail call ptr @__errno_location() #26
  %23 = load i32, ptr %22, align 4
  %24 = icmp eq i32 %23, 4
  br i1 %24, label %pg_preadv.exit.us, label %.loopexit

pg_preadv.exit:                                   ; preds = %8, %30
  %25 = load ptr, ptr @my_wait_event_info, align 8
  store volatile i32 %4, ptr %25, align 4
  %26 = load i32, ptr %11, align 8
  %27 = tail call i64 @preadv(i32 noundef %26, ptr noundef %1, i32 noundef %2, i64 noundef %3) #25
  %28 = load ptr, ptr @my_wait_event_info, align 8
  store volatile i32 0, ptr %28, align 4
  %29 = icmp slt i64 %27, 0
  br i1 %29, label %30, label %.loopexit

30:                                               ; preds = %pg_preadv.exit
  %31 = tail call ptr @__errno_location() #26
  %32 = load i32, ptr %31, align 4
  %33 = icmp eq i32 %32, 4
  br i1 %33, label %pg_preadv.exit, label %.loopexit

.loopexit:                                        ; preds = %30, %pg_preadv.exit, %21, %pg_preadv.exit.us, %5
  %.0 = phi i64 [ -1, %5 ], [ %18, %pg_preadv.exit.us ], [ %18, %21 ], [ %27, %pg_preadv.exit ], [ %27, %30 ]
  ret i64 %.0
}